; ModuleID = '16/1093.c'
source_filename = "16/1093.c"
target datalayout = "e-m:e-p270:32:32-p271:32:32-p272:64:64-i64:64-f80:128-n8:16:32:64-S128"
target triple = "x86_64-pc-linux-gnu"

@.str = private unnamed_addr constant [3 x i8] c"%d\00", align 1
@.str.1 = private unnamed_addr constant [4 x i8] c"%d\0A\00", align 1
@.str.2 = private unnamed_addr constant [6 x i8] c"%d%d\0A\00", align 1
@.str.3 = private unnamed_addr constant [8 x i8] c"%d%d%d\0A\00", align 1
@.str.4 = private unnamed_addr constant [10 x i8] c"%d%d%d%d\0A\00", align 1

; Function Attrs: noinline nounwind uwtable
define dso_local i32 @main() #0 {
  %1 = alloca i32, align 4
  %2 = alloca i32, align 4
  %3 = alloca i32, align 4
  %4 = alloca i32, align 4
  %5 = alloca i32, align 4
  %6 = alloca i32, align 4
  store i32 0, i32* %1, align 4
  %7 = call i32 (i8*, ...) @__isoc99_scanf(i8* getelementptr inbounds ([3 x i8], [3 x i8]* @.str, i64 0, i64 0), i32* %2)
  %8 = load i32, i32* %2, align 4
  %9 = sdiv i32 %8, 1000
  store i32 %9, i32* %3, align 4
  %10 = load i32, i32* %2, align 4
  %11 = load i32, i32* %3, align 4
  %12 = mul nsw i32 1000, %11
  %13 = sub nsw i32 %10, %12
  %14 = sdiv i32 %13, 100
  store i32 %14, i32* %4, align 4
  %15 = load i32, i32* %2, align 4
  %16 = load i32, i32* %3, align 4
  %17 = mul nsw i32 1000, %16
  %18 = sub nsw i32 %15, %17
  %19 = load i32, i32* %4, align 4
  %20 = mul nsw i32 100, %19
  %21 = sub nsw i32 %18, %20
  %22 = sdiv i32 %21, 10
  store i32 %22, i32* %5, align 4
  %23 = load i32, i32* %2, align 4
  %24 = srem i32 %23, 10
  store i32 %24, i32* %6, align 4
  %25 = load i32, i32* %2, align 4
  %26 = icmp slt i32 %25, 10
  br i1 %26, label %27, label %30

27:                                               ; preds = %0
  %28 = load i32, i32* %2, align 4
  %29 = call i32 (i8*, ...) @printf(i8* getelementptr inbounds ([4 x i8], [4 x i8]* @.str.1, i64 0, i64 0), i32 %28)
  br label %57

30:                                               ; preds = %0
  %31 = load i32, i32* %2, align 4
  %32 = icmp slt i32 %31, 100
  br i1 %32, label %33, label %37

33:                                               ; preds = %30
  %34 = load i32, i32* %6, align 4
  %35 = load i32, i32* %5, align 4
  %36 = call i32 (i8*, ...) @printf(i8* getelementptr inbounds ([6 x i8], [6 x i8]* @.str.2, i64 0, i64 0), i32 %34, i32 %35)
  br label %56

37:                                               ; preds = %30
  %38 = load i32, i32* %2, align 4
  %39 = icmp slt i32 %38, 1000
  br i1 %39, label %40, label %45

40:                                               ; preds = %37
  %41 = load i32, i32* %6, align 4
  %42 = load i32, i32* %5, align 4
  %43 = load i32, i32* %4, align 4
  %44 = call i32 (i8*, ...) @printf(i8* getelementptr inbounds ([8 x i8], [8 x i8]* @.str.3, i64 0, i64 0), i32 %41, i32 %42, i32 %43)
  br label %55

45:                                               ; preds = %37
  %46 = load i32, i32* %2, align 4
  %47 = icmp slt i32 %46, 10000
  br i1 %47, label %48, label %54

48:                                               ; preds = %45
  %49 = load i32, i32* %6, align 4
  %50 = load i32, i32* %5, align 4
  %51 = load i32, i32* %4, align 4
  %52 = load i32, i32* %3, align 4
  %53 = call i32 (i8*, ...) @printf(i8* getelementptr inbounds ([10 x i8], [10 x i8]* @.str.4, i64 0, i64 0), i32 %49, i32 %50, i32 %51, i32 %52)
  br label %54

54:                                               ; preds = %48, %45
  br label %55

55:                                               ; preds = %54, %40
  br label %56

56:                                               ; preds = %55, %33
  br label %57

57:                                               ; preds = %56, %27
  %58 = load i32, i32* %1, align 4
  ret i32 %58
}

declare dso_local i32 @__isoc99_scanf(i8*, ...) #1

declare dso_local i32 @printf(i8*, ...) #1


!llvm.module.flags = !{!0}
!llvm.ident = !{!1}

!0 = !{i32 1, !"wchar_size", i32 4}
!1 = !{!"clang version 10.0.0-4ubuntu1 "}
